target datalayout = "e-m:e-p270:32:32-p271:32:32-p272:64:64-i64:64-i128:128-f80:128-n8:16:32:64-S128"
target triple = "x86_64-pc-linux-gnu"

%"class.std::filesystem::__cxx11::path" = type { %"class.std::__cxx11::basic_string", %"struct.std::filesystem::__cxx11::path::_List" }
%"class.std::__cxx11::basic_string" = type { %"struct.std::__cxx11::basic_string<char>::_Alloc_hider", i64, %union.anon.3 }
%"struct.std::__cxx11::basic_string<char>::_Alloc_hider" = type { ptr }
%union.anon.3 = type { i64, [8 x i8] }
%"struct.std::filesystem::__cxx11::path::_List" = type { %"class.std::unique_ptr" }
%"class.std::unique_ptr" = type { %"struct.std::__uniq_ptr_data" }
%"struct.std::__uniq_ptr_data" = type { %"class.std::__uniq_ptr_impl" }
%"class.std::__uniq_ptr_impl" = type { %"class.std::tuple" }
%"class.std::tuple" = type { %"struct.std::_Tuple_impl" }
%"struct.std::_Tuple_impl" = type { %"struct.std::_Head_base.5" }
%"struct.std::_Head_base.5" = type { ptr }

@.str.156 = private unnamed_addr constant [129 x i8] c"generated/home/dtcxzyw/WorkSpace/Projects/compilers/llvm-opt-benchmark/bench/gromacs/gromacs/src/gromacs/gmxana/gmx_make_edi.cpp\00", align 1
@.str.174 = private unnamed_addr constant [11 x i8] c"vec_params\00", align 1
@.str.175 = private unnamed_addr constant [4 x i8] c"%lf\00", align 1
@.str.176 = private unnamed_addr constant [49 x i8] c"Not enough elements for %s parameter (I need %d)\00", align 1
@.str.177 = private unnamed_addr constant [4 x i8] c"%*s\00", align 1

; Function Attrs: mustprogress uwtable
define internal void @_ZL13gmx_snew_implIfEvPKcS1_iRPT_m(ptr noundef %0, ptr noundef %1, i32 noundef %2, ptr noundef nonnull align 8 dereferenceable(8) %3, i64 noundef %4) #0 {
  %6 = alloca ptr, align 8
  %7 = alloca ptr, align 8
  %8 = alloca i32, align 4
  %9 = alloca ptr, align 8
  %10 = alloca i64, align 8
  store ptr %0, ptr %6, align 8
  store ptr %1, ptr %7, align 8
  store i32 %2, ptr %8, align 4
  store ptr %3, ptr %9, align 8
  store i64 %4, ptr %10, align 8
  %11 = load ptr, ptr %6, align 8
  %12 = load ptr, ptr %7, align 8
  %13 = load i32, ptr %8, align 4
  %14 = load i64, ptr %10, align 8
  %15 = call noundef ptr @_Z11save_callocPKcS0_imm(ptr noundef %11, ptr noundef %12, i32 noundef %13, i64 noundef %14, i64 noundef 4)
  %16 = load ptr, ptr %9, align 8
  store ptr %15, ptr %16, align 8
  ret void
}

; Function Attrs: mustprogress uwtable
define internal noundef ptr @_ZL14scan_vecparamsPKcS0_i(ptr noundef %0, ptr noundef %1, i32 noundef %2) #0 personality ptr @__gxx_personality_v0 {
  %4 = alloca ptr, align 8
  %5 = alloca ptr, align 8
  %6 = alloca i32, align 4
  %7 = alloca [256 x i8], align 16
  %8 = alloca [256 x i8], align 16
  %9 = alloca double, align 8
  %10 = alloca i32, align 4
  %11 = alloca ptr, align 8
  %12 = alloca %"class.std::filesystem::__cxx11::path", align 8
  %13 = alloca ptr, align 8
  %14 = alloca i32, align 4
  store ptr %0, ptr %4, align 8
  store ptr %1, ptr %5, align 8
  store i32 %2, ptr %6, align 4
  %15 = load i32, ptr %6, align 4
  %16 = sext i32 %15 to i64
  call void @_ZL13gmx_snew_implIfEvPKcS1_iRPT_m(ptr noundef @.str.174, ptr noundef @.str.156, i32 noundef 546, ptr noundef nonnull align 8 dereferenceable(8) %11, i64 noundef %16)
  %17 = load ptr, ptr %4, align 8
  %18 = icmp ne ptr %17, null
  br i1 %18, label %19, label %56

19:                                               ; preds = %3
  %20 = getelementptr inbounds [256 x i8], ptr %7, i64 0, i64 0
  store i8 0, ptr %20, align 16
  store i32 0, ptr %10, align 4
  br label %21

21:                                               ; preds = %52, %19
  %22 = load i32, ptr %10, align 4
  %23 = load i32, ptr %6, align 4
  %24 = icmp slt i32 %22, %23
  br i1 %24, label %25, label %55

25:                                               ; preds = %21
  %26 = getelementptr inbounds [256 x i8], ptr %8, i64 0, i64 0
  %27 = getelementptr inbounds [256 x i8], ptr %7, i64 0, i64 0
  %28 = call ptr @strcpy(ptr noundef %26, ptr noundef %27) #10
  %29 = getelementptr inbounds [256 x i8], ptr %8, i64 0, i64 0
  %30 = call ptr @strcat(ptr noundef %29, ptr noundef @.str.175) #10
  %31 = load ptr, ptr %4, align 8
  %32 = getelementptr inbounds [256 x i8], ptr %8, i64 0, i64 0
  %33 = call i32 (ptr, ptr, ...) @__isoc99_sscanf(ptr noundef %31, ptr noundef %32, ptr noundef %9) #10
  %34 = icmp ne i32 %33, 1
  br i1 %34, label %35, label %43

35:                                               ; preds = %25
  call void @_ZNSt10filesystem7__cxx114pathC2IA129_cS1_EERKT_NS1_6formatE(ptr noundef nonnull align 8 dereferenceable(40) %12, ptr noundef nonnull align 1 dereferenceable(129) @.str.156, i8 noundef zeroext 2)
  %36 = load ptr, ptr %5, align 8
  %37 = load i32, ptr %6, align 4
  invoke void (i32, ptr, i32, ptr, ...) @_Z9gmx_fataliRKNSt10filesystem7__cxx114pathEiPKcz(i32 noundef 0, ptr noundef nonnull align 8 dereferenceable(40) %12, i32 noundef 556, ptr noundef @.str.176, ptr noundef %36, i32 noundef %37) #11
          to label %38 unwind label %39

38:                                               ; preds = %35
  unreachable

39:                                               ; preds = %35
  %40 = landingpad { ptr, i32 }
          cleanup
  %41 = extractvalue { ptr, i32 } %40, 0
  store ptr %41, ptr %13, align 8
  %42 = extractvalue { ptr, i32 } %40, 1
  store i32 %42, ptr %14, align 4
  call void @_ZNSt10filesystem7__cxx114pathD2Ev(ptr noundef nonnull align 8 dereferenceable(40) %12) #10
  br label %58

43:                                               ; preds = %25
  %44 = load double, ptr %9, align 8
  %45 = fptrunc double %44 to float
  %46 = load ptr, ptr %11, align 8
  %47 = load i32, ptr %10, align 4
  %48 = sext i32 %47 to i64
  %49 = getelementptr inbounds float, ptr %46, i64 %48
  store float %45, ptr %49, align 4
  %50 = getelementptr inbounds [256 x i8], ptr %7, i64 0, i64 0
  %51 = call ptr @strcat(ptr noundef %50, ptr noundef @.str.177) #10
  br label %52

52:                                               ; preds = %43
  %53 = load i32, ptr %10, align 4
  %54 = add nsw i32 %53, 1
  store i32 %54, ptr %10, align 4
  br label %21, !llvm.loop !14

55:                                               ; preds = %21
  br label %56

56:                                               ; preds = %55, %3
  %57 = load ptr, ptr %11, align 8
  ret ptr %57

58:                                               ; preds = %39
  %59 = load ptr, ptr %13, align 8
  %60 = load i32, ptr %14, align 4
  %61 = insertvalue { ptr, i32 } poison, ptr %59, 0
  %62 = insertvalue { ptr, i32 } %61, i32 %60, 1
  resume { ptr, i32 } %62
}