; Function Attrs: mustprogress uwtable
define internal fastcc noundef ptr @_ZL14scan_vecparamsPKcS0_i(ptr noundef readonly %0, ptr noundef %1, i32 noundef %2) unnamed_addr #0 personality ptr @__gxx_personality_v0 {
  %4 = alloca [256 x i8], align 16
  %5 = alloca [256 x i8], align 16
  %6 = alloca double, align 8
  %7 = alloca %"class.std::filesystem::__cxx11::path", align 8
  %8 = sext i32 %2 to i64
  %9 = tail call noundef ptr @_Z11save_callocPKcS0_imm(ptr noundef nonnull @.str.174, ptr noundef nonnull @.str.156, i32 noundef 546, i64 noundef %8, i64 noundef 4)
  %.not = icmp eq ptr %0, null
  br i1 %.not, label %.loopexit, label %10

10:                                               ; preds = %3
  store i8 0, ptr %4, align 16
  %11 = icmp sgt i32 %2, 0
  br i1 %11, label %.lr.ph.preheader, label %.loopexit

.lr.ph.preheader:                                 ; preds = %10
  %wide.trip.count = zext nneg i32 %2 to i64
  br label %.lr.ph

.lr.ph:                                           ; preds = %.lr.ph.preheader, %18
  %indvars.iv = phi i64 [ 0, %.lr.ph.preheader ], [ %indvars.iv.next, %18 ]
  %12 = call ptr @strcpy(ptr noundef nonnull dereferenceable(1) %5, ptr noundef nonnull dereferenceable(1) %4) #15
  %strlen = call i64 @strlen(ptr nonnull dereferenceable(1) %5)
  %endptr = getelementptr inbounds i8, ptr %5, i64 %strlen
  store i32 6712357, ptr %endptr, align 1
  %13 = call i32 (ptr, ptr, ...) @__isoc99_sscanf(ptr noundef nonnull %0, ptr noundef nonnull %5, ptr noundef nonnull %6) #15
  %.not12 = icmp eq i32 %13, 1
  br i1 %.not12, label %18, label %14

14:                                               ; preds = %.lr.ph
  call void @_ZNSt10filesystem7__cxx114pathC2IA129_cS1_EERKT_NS1_6formatE(ptr noundef nonnull align 8 dereferenceable(40) %7, ptr noundef nonnull align 1 dereferenceable(129) @.str.156, i8 noundef zeroext 2)
  invoke void (i32, ptr, i32, ptr, ...) @_Z9gmx_fataliRKNSt10filesystem7__cxx114pathEiPKcz(i32 noundef 0, ptr noundef nonnull align 8 dereferenceable(40) %7, i32 noundef 556, ptr noundef nonnull @.str.176, ptr noundef %1, i32 noundef %2) #16
          to label %15 unwind label %16

15:                                               ; preds = %14
  unreachable

16:                                               ; preds = %14
  %17 = landingpad { ptr, i32 }
          cleanup
  call void @_ZNSt10filesystem7__cxx114pathD2Ev(ptr noundef nonnull align 8 dereferenceable(40) %7) #15
  resume { ptr, i32 } %17

18:                                               ; preds = %.lr.ph
  %19 = load double, ptr %6, align 8
  %20 = fptrunc double %19 to float
  %21 = getelementptr inbounds float, ptr %9, i64 %indvars.iv
  store float %20, ptr %21, align 4
  %strlen13 = call i64 @strlen(ptr nonnull dereferenceable(1) %4)
  %endptr14 = getelementptr inbounds i8, ptr %4, i64 %strlen13
  store i32 7547429, ptr %endptr14, align 1
  %indvars.iv.next = add nuw nsw i64 %indvars.iv, 1
  %exitcond.not = icmp eq i64 %indvars.iv.next, %wide.trip.count
  br i1 %exitcond.not, label %.loopexit, label %.lr.ph, !llvm.loop !20

.loopexit:                                        ; preds = %18, %10, %3
  ret ptr %9
}